; Function Attrs: mustprogress nofree norecurse nosync nounwind willreturn memory(readwrite, inaccessiblemem: none) uwtable
define noundef i32 @H5T_patch_vlen_file(ptr nocapture noundef readonly %0, ptr noundef %1) local_unnamed_addr #4 {
  %3 = getelementptr inbounds i8, ptr %0, i64 40
  %4 = load ptr, ptr %3, align 8
  %5 = getelementptr inbounds i8, ptr %4, i64 12
  %6 = load i32, ptr %5, align 4
  %7 = icmp eq i32 %6, 9
  br i1 %7, label %8, label %12

8:                                                ; preds = %2
  %9 = getelementptr inbounds i8, ptr %4, i64 64
  %10 = load ptr, ptr %9, align 8
  %.not = icmp eq ptr %10, %1
  br i1 %.not, label %12, label %11

11:                                               ; preds = %8
  store ptr %1, ptr %9, align 8
  br label %12

12:                                               ; preds = %11, %8, %2
  ret i32 0
}